target datalayout = "e-m:e-p270:32:32-p271:32:32-p272:64:64-i64:64-i128:128-f80:128-n8:16:32:64-S128"
target triple = "x86_64-pc-linux-gnu"

%"class.OpenSubdiv::v3_6_0::Bfr::Parameterization" = type { i8, i8, i16 }
%"class.OpenSubdiv::v3_6_0::Bfr::Tessellation" = type { %"class.OpenSubdiv::v3_6_0::Bfr::Parameterization", i8, i16, i32, i32, i32, i32, i32, i32, [2 x i32], ptr, [4 x i32] }

; Function Attrs: mustprogress nounwind uwtable
define linkonce_odr noundef i32 @_ZN10OpenSubdiv6v3_6_03Bfr4qsub18countUniformCoordsEii(i32 noundef %0, i32 noundef %1) #1 comdat align 2 {
  %3 = alloca i32, align 4
  %4 = alloca i32, align 4
  %5 = alloca i32, align 4
  store i32 %0, ptr %3, align 4
  store i32 %1, ptr %4, align 4
  %6 = load i32, ptr %4, align 4
  %7 = sdiv i32 %6, 2
  store i32 %7, ptr %5, align 4
  %8 = load i32, ptr %4, align 4
  %9 = and i32 %8, 1
  %10 = icmp ne i32 %9, 0
  br i1 %10, label %11, label %23

11:                                               ; preds = %2
  %12 = load i32, ptr %5, align 4
  %13 = add nsw i32 %12, 1
  %14 = load i32, ptr %5, align 4
  %15 = add nsw i32 %14, 1
  %16 = mul nsw i32 %13, %15
  %17 = load i32, ptr %3, align 4
  %18 = mul nsw i32 %16, %17
  %19 = load i32, ptr %3, align 4
  %20 = icmp eq i32 %19, 3
  %21 = select i1 %20, i32 0, i32 1
  %22 = add nsw i32 %18, %21
  br label %31

23:                                               ; preds = %2
  %24 = load i32, ptr %5, align 4
  %25 = load i32, ptr %5, align 4
  %26 = add nsw i32 %25, 1
  %27 = mul nsw i32 %24, %26
  %28 = load i32, ptr %3, align 4
  %29 = mul nsw i32 %27, %28
  %30 = add nsw i32 %29, 1
  br label %31

31:                                               ; preds = %23, %11
  %32 = phi i32 [ %22, %11 ], [ %30, %23 ]
  ret i32 %32
}

; Function Attrs: mustprogress nounwind uwtable
define linkonce_odr noundef i32 @_ZN10OpenSubdiv6v3_6_03Bfr4qsub18CountUniformFacetsEiib(i32 noundef %0, i32 noundef %1, i1 noundef zeroext %2) #1 comdat align 2 {
  %4 = alloca i32, align 4
  %5 = alloca i32, align 4
  %6 = alloca i8, align 1
  %7 = alloca i8, align 1
  %8 = alloca i32, align 4
  %9 = alloca i32, align 4
  %10 = alloca i32, align 4
  store i32 %0, ptr %4, align 4
  store i32 %1, ptr %5, align 4
  %11 = zext i1 %2 to i8
  store i8 %11, ptr %6, align 1
  %12 = load i32, ptr %5, align 4
  %13 = and i32 %12, 1
  %14 = icmp ne i32 %13, 0
  %15 = zext i1 %14 to i8
  store i8 %15, ptr %7, align 1
  %16 = load i32, ptr %5, align 4
  %17 = sdiv i32 %16, 2
  store i32 %17, ptr %8, align 4
  %18 = load i32, ptr %8, align 4
  %19 = load i8, ptr %7, align 1
  %20 = trunc i8 %19 to i1
  %21 = zext i1 %20 to i32
  %22 = add nsw i32 %18, %21
  %23 = load i32, ptr %8, align 4
  %24 = mul nsw i32 %22, %23
  %25 = load i32, ptr %4, align 4
  %26 = mul nsw i32 %24, %25
  store i32 %26, ptr %9, align 4
  %27 = load i8, ptr %7, align 1
  %28 = trunc i8 %27 to i1
  br i1 %28, label %29, label %37

29:                                               ; preds = %3
  %30 = load i32, ptr %4, align 4
  %31 = icmp eq i32 %30, 3
  br i1 %31, label %32, label %33

32:                                               ; preds = %29
  br label %35

33:                                               ; preds = %29
  %34 = load i32, ptr %4, align 4
  br label %35

35:                                               ; preds = %33, %32
  %36 = phi i32 [ 1, %32 ], [ %34, %33 ]
  br label %38

37:                                               ; preds = %3
  br label %38

38:                                               ; preds = %37, %35
  %39 = phi i32 [ %36, %35 ], [ 0, %37 ]
  store i32 %39, ptr %10, align 4
  %40 = load i32, ptr %9, align 4
  %41 = load i8, ptr %6, align 1
  %42 = trunc i8 %41 to i1
  %43 = zext i1 %42 to i32
  %44 = shl i32 %40, %43
  %45 = load i32, ptr %10, align 4
  %46 = add nsw i32 %44, %45
  ret i32 %46
}

; Function Attrs: mustprogress uwtable
define linkonce_odr noundef i32 @_ZN10OpenSubdiv6v3_6_03Bfr4qsub19CountInteriorCoordsEii(i32 noundef %0, i32 noundef %1) #0 comdat align 2 {
  %3 = alloca i32, align 4
  %4 = alloca i32, align 4
  store i32 %0, ptr %3, align 4
  store i32 %1, ptr %4, align 4
  %5 = load i32, ptr %3, align 4
  %6 = load i32, ptr %4, align 4
  %7 = sub nsw i32 %6, 2
  %8 = call noundef i32 @_ZN10OpenSubdiv6v3_6_03Bfr4qsub18countUniformCoordsEii(i32 noundef %5, i32 noundef %7)
  ret i32 %8
}

; Function Attrs: mustprogress nounwind uwtable
define linkonce_odr noundef i32 @_ZNK10OpenSubdiv6v3_6_03Bfr16Parameterization11GetFaceSizeEv(ptr noundef nonnull align 2 dereferenceable(4) %0) #1 comdat align 2 {
  %2 = alloca ptr, align 8
  store ptr %0, ptr %2, align 8
  %3 = load ptr, ptr %2, align 8
  %4 = getelementptr inbounds nuw %"class.OpenSubdiv::v3_6_0::Bfr::Parameterization", ptr %3, i32 0, i32 2
  %5 = load i16, ptr %4, align 2
  %6 = zext i16 %5 to i32
  ret i32 %6
}

; Function Attrs: mustprogress uwtable
define void @_ZN10OpenSubdiv6v3_6_03Bfr12Tessellation32initializeInventoryForParamQPolyEi(ptr noundef nonnull align 8 dereferenceable(64) %0, i32 noundef %1) #0 align 2 {
  %3 = alloca ptr, align 8
  %4 = alloca i32, align 4
  %5 = alloca i32, align 4
  %6 = alloca i32, align 4
  store ptr %0, ptr %3, align 8
  store i32 %1, ptr %4, align 4
  %7 = load ptr, ptr %3, align 8
  %8 = getelementptr inbounds nuw %"class.OpenSubdiv::v3_6_0::Bfr::Tessellation", ptr %7, i32 0, i32 0
  %9 = call noundef i32 @_ZNK10OpenSubdiv6v3_6_03Bfr16Parameterization11GetFaceSizeEv(ptr noundef nonnull align 2 dereferenceable(4) %8)
  store i32 %9, ptr %5, align 4
  %10 = getelementptr inbounds nuw %"class.OpenSubdiv::v3_6_0::Bfr::Tessellation", ptr %7, i32 0, i32 9
  %11 = getelementptr inbounds [2 x i32], ptr %10, i64 0, i64 0
  %12 = load i32, ptr %11, align 8
  store i32 %12, ptr %6, align 4
  %13 = getelementptr inbounds nuw %"class.OpenSubdiv::v3_6_0::Bfr::Tessellation", ptr %7, i32 0, i32 1
  %14 = load i8, ptr %13, align 4
  %15 = lshr i8 %14, 1
  %16 = and i8 %15, 1
  %17 = zext i8 %16 to i16
  %18 = icmp ne i16 %17, 0
  br i1 %18, label %19, label %57

19:                                               ; preds = %2
  %20 = load i32, ptr %6, align 4
  %21 = icmp sgt i32 %20, 1
  br i1 %21, label %22, label %37

22:                                               ; preds = %19
  %23 = load i32, ptr %5, align 4
  %24 = load i32, ptr %6, align 4
  %25 = call noundef i32 @_ZN10OpenSubdiv6v3_6_03Bfr4qsub19CountInteriorCoordsEii(i32 noundef %23, i32 noundef %24)
  %26 = getelementptr inbounds nuw %"class.OpenSubdiv::v3_6_0::Bfr::Tessellation", ptr %7, i32 0, i32 7
  store i32 %25, ptr %26, align 8
  %27 = load i32, ptr %5, align 4
  %28 = load i32, ptr %6, align 4
  %29 = getelementptr inbounds nuw %"class.OpenSubdiv::v3_6_0::Bfr::Tessellation", ptr %7, i32 0, i32 1
  %30 = load i8, ptr %29, align 4
  %31 = lshr i8 %30, 2
  %32 = and i8 %31, 1
  %33 = zext i8 %32 to i16
  %34 = icmp ne i16 %33, 0
  %35 = call noundef i32 @_ZN10OpenSubdiv6v3_6_03Bfr4qsub18CountUniformFacetsEiib(i32 noundef %27, i32 noundef %28, i1 noundef zeroext %34)
  %36 = getelementptr inbounds nuw %"class.OpenSubdiv::v3_6_0::Bfr::Tessellation", ptr %7, i32 0, i32 8
  store i32 %35, ptr %36, align 4
  br label %56

37:                                               ; preds = %19
  %38 = load i32, ptr %5, align 4
  %39 = icmp eq i32 %38, 3
  br i1 %39, label %40, label %47

40:                                               ; preds = %37
  %41 = getelementptr inbounds nuw %"class.OpenSubdiv::v3_6_0::Bfr::Tessellation", ptr %7, i32 0, i32 7
  store i32 0, ptr %41, align 8
  %42 = getelementptr inbounds nuw %"class.OpenSubdiv::v3_6_0::Bfr::Tessellation", ptr %7, i32 0, i32 8
  store i32 1, ptr %42, align 4
  %43 = getelementptr inbounds nuw %"class.OpenSubdiv::v3_6_0::Bfr::Tessellation", ptr %7, i32 0, i32 1
  %44 = load i8, ptr %43, align 4
  %45 = and i8 %44, -9
  %46 = or i8 %45, 8
  store i8 %46, ptr %43, align 4
  br label %55

47:                                               ; preds = %37
  %48 = getelementptr inbounds nuw %"class.OpenSubdiv::v3_6_0::Bfr::Tessellation", ptr %7, i32 0, i32 7
  store i32 1, ptr %48, align 8
  %49 = load i32, ptr %5, align 4
  %50 = getelementptr inbounds nuw %"class.OpenSubdiv::v3_6_0::Bfr::Tessellation", ptr %7, i32 0, i32 8
  store i32 %49, ptr %50, align 4
  %51 = getelementptr inbounds nuw %"class.OpenSubdiv::v3_6_0::Bfr::Tessellation", ptr %7, i32 0, i32 1
  %52 = load i8, ptr %51, align 4
  %53 = and i8 %52, -33
  %54 = or i8 %53, 32
  store i8 %54, ptr %51, align 4
  br label %55

55:                                               ; preds = %47, %40
  br label %56

56:                                               ; preds = %55, %22
  br label %86

57:                                               ; preds = %2
  %58 = load i32, ptr %6, align 4
  %59 = icmp sgt i32 %58, 1
  br i1 %59, label %60, label %77

60:                                               ; preds = %57
  %61 = load i32, ptr %5, align 4
  %62 = load i32, ptr %6, align 4
  %63 = call noundef i32 @_ZN10OpenSubdiv6v3_6_03Bfr4qsub19CountInteriorCoordsEii(i32 noundef %61, i32 noundef %62)
  %64 = getelementptr inbounds nuw %"class.OpenSubdiv::v3_6_0::Bfr::Tessellation", ptr %7, i32 0, i32 7
  store i32 %63, ptr %64, align 8
  %65 = load i32, ptr %5, align 4
  %66 = getelementptr inbounds nuw %"class.OpenSubdiv::v3_6_0::Bfr::Tessellation", ptr %7, i32 0, i32 10
  %67 = load ptr, ptr %66, align 8
  %68 = load i32, ptr %6, align 4
  %69 = getelementptr inbounds nuw %"class.OpenSubdiv::v3_6_0::Bfr::Tessellation", ptr %7, i32 0, i32 1
  %70 = load i8, ptr %69, align 4
  %71 = lshr i8 %70, 2
  %72 = and i8 %71, 1
  %73 = zext i8 %72 to i16
  %74 = icmp ne i16 %73, 0
  %75 = call noundef i32 @_ZN10OpenSubdiv6v3_6_03Bfr4qsub21CountNonUniformFacetsEiPKiib(i32 noundef %65, ptr noundef %67, i32 noundef %68, i1 noundef zeroext %74)
  %76 = getelementptr inbounds nuw %"class.OpenSubdiv::v3_6_0::Bfr::Tessellation", ptr %7, i32 0, i32 8
  store i32 %75, ptr %76, align 4
  br label %85

77:                                               ; preds = %57
  %78 = getelementptr inbounds nuw %"class.OpenSubdiv::v3_6_0::Bfr::Tessellation", ptr %7, i32 0, i32 7
  store i32 1, ptr %78, align 8
  %79 = load i32, ptr %4, align 4
  %80 = getelementptr inbounds nuw %"class.OpenSubdiv::v3_6_0::Bfr::Tessellation", ptr %7, i32 0, i32 8
  store i32 %79, ptr %80, align 4
  %81 = getelementptr inbounds nuw %"class.OpenSubdiv::v3_6_0::Bfr::Tessellation", ptr %7, i32 0, i32 1
  %82 = load i8, ptr %81, align 4
  %83 = and i8 %82, -33
  %84 = or i8 %83, 32
  store i8 %84, ptr %81, align 4
  br label %85

85:                                               ; preds = %77, %60
  br label %86

86:                                               ; preds = %85, %56
  %87 = load i32, ptr %4, align 4
  %88 = getelementptr inbounds nuw %"class.OpenSubdiv::v3_6_0::Bfr::Tessellation", ptr %7, i32 0, i32 6
  store i32 %87, ptr %88, align 4
  ret void
}