; Function Attrs: mustprogress nofree norecurse nosync nounwind willreturn memory(read, argmem: readwrite, inaccessiblemem: none) uwtable
define void @_ZN10OpenSubdiv6v3_6_03Bfr12Tessellation32initializeInventoryForParamQPolyEi(ptr nocapture noundef nonnull align 8 dereferenceable(64) %0, i32 noundef %1) local_unnamed_addr #8 align 2 {
  %3 = getelementptr inbounds nuw i8, ptr %0, i64 2
  %4 = load i16, ptr %3, align 2
  %5 = zext i16 %4 to i32
  %6 = getelementptr inbounds nuw i8, ptr %0, i64 32
  %7 = load i32, ptr %6, align 8
  %8 = getelementptr inbounds nuw i8, ptr %0, i64 4
  %9 = load i8, ptr %8, align 4
  %10 = and i8 %9, 2
  %.not = icmp eq i8 %10, 0
  %11 = icmp sgt i32 %7, 1
  br i1 %.not, label %49, label %12

12:                                               ; preds = %2
  br i1 %11, label %13, label %41

13:                                               ; preds = %12
  %14 = add nsw i32 %7, -2
  %15 = lshr i32 %14, 1
  %16 = and i32 %7, 1
  %.not.i.i = icmp eq i32 %16, 0
  %17 = add nuw nsw i32 %15, 1
  %18 = mul i32 %17, %5
  br i1 %.not.i.i, label %24, label %19

19:                                               ; preds = %13
  %20 = mul i32 %18, %17
  %21 = icmp ne i16 %4, 3
  %22 = zext i1 %21 to i32
  %23 = add nsw i32 %20, %22
  br label %_ZN10OpenSubdiv6v3_6_03Bfr4qsub19CountInteriorCoordsEii.exit

24:                                               ; preds = %13
  %25 = mul i32 %18, %15
  %26 = add nsw i32 %25, 1
  br label %_ZN10OpenSubdiv6v3_6_03Bfr4qsub19CountInteriorCoordsEii.exit

_ZN10OpenSubdiv6v3_6_03Bfr4qsub19CountInteriorCoordsEii.exit: ; preds = %19, %24
  %27 = phi i32 [ %23, %19 ], [ %26, %24 ]
  %28 = getelementptr inbounds nuw i8, ptr %0, i64 24
  store i32 %27, ptr %28, align 8
  %29 = lshr i32 %7, 1
  %30 = add nuw nsw i32 %29, %16
  %31 = mul i32 %29, %5
  %32 = mul i32 %31, %30
  %33 = icmp eq i16 %4, 3
  %34 = select i1 %33, i32 1, i32 %5
  %35 = select i1 %.not.i.i, i32 0, i32 %34
  %36 = lshr i8 %9, 2
  %.lobit = and i8 %36, 1
  %37 = zext nneg i8 %.lobit to i32
  %38 = shl i32 %32, %37
  %39 = add nsw i32 %38, %35
  %40 = getelementptr inbounds nuw i8, ptr %0, i64 28
  store i32 %39, ptr %40, align 4
  br label %76

41:                                               ; preds = %12
  %42 = icmp eq i16 %4, 3
  %43 = getelementptr inbounds nuw i8, ptr %0, i64 24
  %44 = getelementptr inbounds nuw i8, ptr %0, i64 28
  br i1 %42, label %45, label %47

45:                                               ; preds = %41
  store i32 0, ptr %43, align 8
  store i32 1, ptr %44, align 4
  %46 = or i8 %9, 8
  store i8 %46, ptr %8, align 4
  br label %76

47:                                               ; preds = %41
  store i32 1, ptr %43, align 8
  store i32 %5, ptr %44, align 4
  %48 = or i8 %9, 32
  store i8 %48, ptr %8, align 4
  br label %76

49:                                               ; preds = %2
  br i1 %11, label %50, label %72

50:                                               ; preds = %49
  %51 = add nsw i32 %7, -2
  %52 = lshr i32 %51, 1
  %53 = and i32 %7, 1
  %.not.i.i15 = icmp eq i32 %53, 0
  %54 = add nuw nsw i32 %52, 1
  %55 = mul i32 %54, %5
  br i1 %.not.i.i15, label %61, label %56

56:                                               ; preds = %50
  %57 = mul i32 %55, %54
  %58 = icmp ne i16 %4, 3
  %59 = zext i1 %58 to i32
  %60 = add nsw i32 %57, %59
  br label %_ZN10OpenSubdiv6v3_6_03Bfr4qsub19CountInteriorCoordsEii.exit16

61:                                               ; preds = %50
  %62 = mul i32 %55, %52
  %63 = add nsw i32 %62, 1
  br label %_ZN10OpenSubdiv6v3_6_03Bfr4qsub19CountInteriorCoordsEii.exit16

_ZN10OpenSubdiv6v3_6_03Bfr4qsub19CountInteriorCoordsEii.exit16: ; preds = %56, %61
  %64 = phi i32 [ %60, %56 ], [ %63, %61 ]
  %65 = getelementptr inbounds nuw i8, ptr %0, i64 24
  store i32 %64, ptr %65, align 8
  %66 = getelementptr inbounds nuw i8, ptr %0, i64 40
  %67 = load ptr, ptr %66, align 8
  %68 = and i8 %9, 4
  %69 = icmp ne i8 %68, 0
  %70 = tail call noundef i32 @_ZN10OpenSubdiv6v3_6_03Bfr4qsub21CountNonUniformFacetsEiPKiib(i32 noundef %5, ptr noundef %67, i32 noundef %7, i1 noundef zeroext %69)
  %71 = getelementptr inbounds nuw i8, ptr %0, i64 28
  store i32 %70, ptr %71, align 4
  br label %76

72:                                               ; preds = %49
  %73 = getelementptr inbounds nuw i8, ptr %0, i64 24
  store i32 1, ptr %73, align 8
  %74 = getelementptr inbounds nuw i8, ptr %0, i64 28
  store i32 %1, ptr %74, align 4
  %75 = or i8 %9, 32
  store i8 %75, ptr %8, align 4
  br label %76

76:                                               ; preds = %_ZN10OpenSubdiv6v3_6_03Bfr4qsub19CountInteriorCoordsEii.exit16, %72, %_ZN10OpenSubdiv6v3_6_03Bfr4qsub19CountInteriorCoordsEii.exit, %47, %45
  %77 = getelementptr inbounds nuw i8, ptr %0, i64 20
  store i32 %1, ptr %77, align 4
  ret void
}